Certificate:
    Data:
        Version: 3 (0x2)
        Serial Number: 2 (0x2)
        Signature Algorithm: sha1WithRSAEncryption
        Issuer: DC=org, DC=simple, O=Simple Inc, OU=Simple Root CA, CN=Simple Root CA
        Validity
            Not Before: May 15 04:10:35 2021 GMT
            Not After : May 15 04:10:35 2031 GMT
        Subject: DC=org, DC=simple, O=Simple Inc, OU=Simple Signing CA, CN=Simple Signing CA
        Subject Public Key Info:
            Public Key Algorithm: rsaEncryption
                RSA Public-Key: (2048 bit)
                Modulus:
                    00:a8:0d:f6:b9:71:46:86:a7:12:ef:d8:39:d0:89:
                    98:ae:eb:72:8d:cf:aa:48:3e:4f:87:e6:c3:fa:04:
                    76:8d:ce:8a:4e:8d:d4:da:0b:c6:80:97:a2:1a:43:
                    6d:89:b2:6e:6c:88:13:9b:58:c2:97:80:3b:09:b1:
                    e6:8c:71:a4:9b:91:26:2e:70:b6:77:bb:cd:59:d7:
                    db:84:ed:b3:4d:9c:39:53:1a:91:75:4f:50:66:f1:
                    3d:3b:f6:cb:b5:76:61:d6:c2:b3:6d:26:1f:df:21:
                    8b:ad:4c:5a:58:fa:ea:cc:0f:5a:c7:be:89:5b:93:
                    5b:e8:09:9a:bc:f8:bd:50:7b:5a:7a:7b:8f:8d:36:
                    30:73:30:5c:eb:98:91:23:2f:e1:f1:04:74:d1:88:
                    a4:38:c5:b0:bc:87:d3:ad:d0:3c:30:9e:04:f9:7d:
                    db:b2:e0:64:29:0e:b7:f8:e0:df:9a:33:c8:84:cc:
                    d6:4a:79:97:b9:80:bd:5c:ce:a7:fa:e2:80:f6:55:
                    02:f1:04:53:1c:30:af:5d:28:d3:88:2d:50:66:b1:
                    48:c5:af:20:f1:32:08:7f:68:5f:c2:29:e1:f4:3c:
                    2a:04:cf:bb:5e:22:46:0b:13:82:54:31:6e:aa:6a:
                    d6:f5:3e:fe:59:41:be:4b:e5:e5:04:6a:0d:dd:01:
                    24:dd
                Exponent: 65537 (0x10001)
        X509v3 extensions:
            X509v3 Key Usage: critical
                Certificate Sign, CRL Sign
            X509v3 Basic Constraints: critical
                CA:TRUE, pathlen:0
            X509v3 Subject Key Identifier: 
                DB:60:2E:B3:16:96:C0:30:1A:E5:8C:F3:42:0D:C4:41:AB:DC:F7:EA
            X509v3 Authority Key Identifier: 
                keyid:7A:4A:76:44:36:BF:04:A5:6F:93:28:83:C8:40:9C:7D:1B:3B:BD:60

    Signature Algorithm: sha1WithRSAEncryption
         bb:74:07:d5:69:a5:31:e3:a8:a5:bf:e0:44:fc:76:82:cb:97:
         83:a6:39:d6:87:30:79:d0:ea:52:66:3f:f1:3f:89:69:fd:ed:
         79:57:e5:9e:6f:21:22:aa:4e:25:78:af:ad:04:ad:fb:94:e0:
         95:95:31:3e:31:bf:f1:ec:b4:d3:a7:3e:39:c1:e7:fd:37:cf:
         7d:3a:9b:08:f8:b1:a4:2d:af:ce:ea:a4:db:58:15:fd:2e:88:
         5e:14:03:b7:67:8b:2c:75:14:96:45:62:57:91:47:b9:34:7c:
         59:3c:d0:3b:9f:b8:94:dc:fe:6e:34:36:e0:4a:8b:12:f8:30:
         8e:e8:61:34:cd:a5:c1:82:c2:6f:15:06:3f:6b:f6:e6:74:05:
         cd:35:22:f6:9f:d9:98:69:5f:3b:62:2f:b6:81:8c:23:7f:00:
         b4:11:56:83:6b:b9:87:85:c1:65:8a:ff:24:81:c1:8c:f0:87:
         f5:c0:d4:c9:1d:08:23:dc:45:04:79:4c:64:1e:6f:ef:16:18:
         2d:34:c4:96:df:77:ff:fa:9f:99:af:ea:01:e9:c4:41:06:e3:
         6c:af:36:56:79:93:7a:4e:60:c3:e8:fc:2d:be:66:5a:da:ba:
         fa:60:85:e5:56:5f:c8:4d:3e:19:de:3c:06:1e:79:16:78:14:
         fa:0c:4f:e4
-----BEGIN CERTIFICATE-----
MIIDzzCCAregAwIBAgIBAjANBgkqhkiG9w0BAQUFADB0MRMwEQYKCZImiZPyLGQB
GRYDb3JnMRYwFAYKCZImiZPyLGQBGRYGc2ltcGxlMRMwEQYDVQQKDApTaW1wbGUg
SW5jMRcwFQYDVQQLDA5TaW1wbGUgUm9vdCBDQTEXMBUGA1UEAwwOU2ltcGxlIFJv
b3QgQ0EwHhcNMjEwNTE1MDQxMDM1WhcNMzEwNTE1MDQxMDM1WjB6MRMwEQYKCZIm
iZPyLGQBGRYDb3JnMRYwFAYKCZImiZPyLGQBGRYGc2ltcGxlMRMwEQYDVQQKDApT
aW1wbGUgSW5jMRowGAYDVQQLDBFTaW1wbGUgU2lnbmluZyBDQTEaMBgGA1UEAwwR
U2ltcGxlIFNpZ25pbmcgQ0EwggEiMA0GCSqGSIb3DQEBAQUAA4IBDwAwggEKAoIB
AQCoDfa5cUaGpxLv2DnQiZiu63KNz6pIPk+H5sP6BHaNzopOjdTaC8aAl6IaQ22J
sm5siBObWMKXgDsJseaMcaSbkSYucLZ3u81Z19uE7bNNnDlTGpF1T1Bm8T079su1
dmHWwrNtJh/fIYutTFpY+urMD1rHvolbk1voCZq8+L1Qe1p6e4+NNjBzMFzrmJEj
L+HxBHTRiKQ4xbC8h9Ot0DwwngT5fduy4GQpDrf44N+aM8iEzNZKeZe5gL1czqf6
4oD2VQLxBFMcMK9dKNOILVBmsUjFryDxMgh/aF/CKeH0PCoEz7teIkYLE4JUMW6q
atb1Pv5ZQb5L5eUEag3dASTdAgMBAAGjZjBkMA4GA1UdDwEB/wQEAwIBBjASBgNV
HRMBAf8ECDAGAQH/AgEAMB0GA1UdDgQWBBTbYC6zFpbAMBrljPNCDcRBq9z36jAf
BgNVHSMEGDAWgBR6SnZENr8EpW+TKIPIQJx9Gzu9YDANBgkqhkiG9w0BAQUFAAOC
AQEAu3QH1WmlMeOopb/gRPx2gsuXg6Y51ocwedDqUmY/8T+Jaf3teVflnm8hIqpO
JXivrQSt+5TglZUxPjG/8ey006c+OcHn/TfPfTqbCPixpC2vzuqk21gV/S6IXhQD
t2eLLHUUlkViV5FHuTR8WTzQO5+4lNz+bjQ24EqLEvgwjuhhNM2lwYLCbxUGP2v2
5nQFzTUi9p/ZmGlfO2IvtoGMI38AtBFWg2u5h4XBZYr/JIHBjPCH9cDUyR0II9xF
BHlMZB5v7xYYLTTElt93//qfma/qAenEQQbjbK82VnmTek5gw+j8Lb5mWtq6+mCF
5VZfyE0+Gd48Bh55FngU+gxP5A==
-----END CERTIFICATE-----
