Certificate:
    Data:
        Version: 3 (0x2)
        Serial Number: 1 (0x1)
        Signature Algorithm: sha1WithRSAEncryption
        Issuer: DC=org, DC=simple, O=Simple Inc, OU=Simple Root CA, CN=Simple Root CA
        Validity
            Not Before: May 15 04:09:10 2021 GMT
            Not After : May 15 04:09:10 2031 GMT
        Subject: DC=org, DC=simple, O=Simple Inc, OU=Simple Root CA, CN=Simple Root CA
        Subject Public Key Info:
            Public Key Algorithm: rsaEncryption
                RSA Public-Key: (2048 bit)
                Modulus:
                    00:bd:77:69:39:af:2b:9d:a2:98:17:ef:78:3e:26:
                    d4:3d:49:df:2c:46:c7:d8:15:04:fa:c4:79:72:23:
                    67:6f:8f:f0:da:4e:cb:6e:15:00:b8:8c:2c:51:1b:
                    6f:6d:31:0a:25:4d:e6:66:af:55:ec:94:d1:c1:0e:
                    e2:e2:6a:4c:69:06:65:35:43:35:6c:ea:b7:51:48:
                    f2:a7:ad:c1:54:e4:5e:10:89:1d:62:fe:f8:ea:76:
                    99:a7:0f:ac:2e:40:29:21:fa:e7:75:4e:26:36:3a:
                    da:91:5e:7d:48:99:e8:8a:5a:52:d9:03:51:f4:1e:
                    da:9b:73:7d:10:1c:fc:21:fc:cc:bb:19:c7:05:1c:
                    6d:d8:43:2c:03:6c:60:f1:fe:b1:3c:bf:12:88:14:
                    59:82:0f:99:37:1d:d6:fc:ab:2b:97:22:55:5f:31:
                    a1:92:eb:6f:da:22:65:35:a8:6d:88:1b:5b:9e:09:
                    b3:e2:53:f3:7a:80:13:64:1b:c0:a0:54:25:17:b6:
                    7f:fe:52:d2:64:65:dc:94:83:e7:93:17:df:68:ee:
                    2b:3b:9a:38:2e:d5:4a:34:dd:26:2e:ee:8b:f6:c4:
                    72:76:07:9e:d8:20:77:f7:5f:15:fc:bd:0b:b5:ac:
                    de:2a:13:2c:5f:62:0b:55:62:44:0c:1b:4b:d8:b7:
                    0c:21
                Exponent: 65537 (0x10001)
        X509v3 extensions:
            X509v3 Key Usage: critical
                Certificate Sign, CRL Sign
            X509v3 Basic Constraints: critical
                CA:TRUE
            X509v3 Subject Key Identifier: 
                7A:4A:76:44:36:BF:04:A5:6F:93:28:83:C8:40:9C:7D:1B:3B:BD:60
            X509v3 Authority Key Identifier: 
                keyid:7A:4A:76:44:36:BF:04:A5:6F:93:28:83:C8:40:9C:7D:1B:3B:BD:60

    Signature Algorithm: sha1WithRSAEncryption
         89:32:b7:80:8f:9c:5c:a3:a8:d6:b5:24:c1:aa:db:ac:15:43:
         18:0c:1f:8c:e7:cf:22:ec:05:3f:e0:bb:80:7a:75:de:18:b5:
         5e:86:76:b7:6e:f3:36:e0:88:74:a7:9c:23:7a:89:cd:76:b7:
         89:0f:75:15:32:b1:ed:7f:9b:29:96:ab:62:08:ee:e1:d6:a0:
         7d:ac:50:89:e1:c4:9a:fa:21:c0:a6:53:8e:cc:fc:3e:03:9b:
         92:06:2e:a4:de:7b:a2:3b:1e:d3:d9:59:5f:46:2b:11:51:b2:
         c6:23:81:45:e4:36:ec:6b:99:99:a8:55:68:54:e8:b6:bf:ad:
         ad:d3:04:09:41:1e:bd:39:1b:e2:11:7c:32:0a:8d:14:c5:fa:
         cd:09:a7:66:4a:f3:52:19:6f:25:1c:e3:0b:da:96:57:ba:51:
         6f:0f:ac:8c:0c:56:0b:e6:39:45:dc:a8:74:80:5c:93:f3:42:
         4e:c9:d2:a6:f4:c8:15:e6:a4:65:94:e7:6e:26:27:b4:c7:ab:
         ca:34:cd:e4:58:71:0e:69:d3:19:a2:bd:6a:2b:c4:9b:b6:9e:
         3e:c4:cb:a4:67:ce:70:bc:a6:7e:a4:95:70:69:ac:63:2a:09:
         2d:43:25:0c:92:60:57:f8:87:26:5f:a4:f3:37:58:56:4d:cb:
         cc:07:db:54
-----BEGIN CERTIFICATE-----
MIIDxjCCAq6gAwIBAgIBATANBgkqhkiG9w0BAQUFADB0MRMwEQYKCZImiZPyLGQB
GRYDb3JnMRYwFAYKCZImiZPyLGQBGRYGc2ltcGxlMRMwEQYDVQQKDApTaW1wbGUg
SW5jMRcwFQYDVQQLDA5TaW1wbGUgUm9vdCBDQTEXMBUGA1UEAwwOU2ltcGxlIFJv
b3QgQ0EwHhcNMjEwNTE1MDQwOTEwWhcNMzEwNTE1MDQwOTEwWjB0MRMwEQYKCZIm
iZPyLGQBGRYDb3JnMRYwFAYKCZImiZPyLGQBGRYGc2ltcGxlMRMwEQYDVQQKDApT
aW1wbGUgSW5jMRcwFQYDVQQLDA5TaW1wbGUgUm9vdCBDQTEXMBUGA1UEAwwOU2lt
cGxlIFJvb3QgQ0EwggEiMA0GCSqGSIb3DQEBAQUAA4IBDwAwggEKAoIBAQC9d2k5
ryudopgX73g+JtQ9Sd8sRsfYFQT6xHlyI2dvj/DaTstuFQC4jCxRG29tMQolTeZm
r1XslNHBDuLiakxpBmU1QzVs6rdRSPKnrcFU5F4QiR1i/vjqdpmnD6wuQCkh+ud1
TiY2OtqRXn1ImeiKWlLZA1H0Htqbc30QHPwh/My7GccFHG3YQywDbGDx/rE8vxKI
FFmCD5k3Hdb8qyuXIlVfMaGS62/aImU1qG2IG1ueCbPiU/N6gBNkG8CgVCUXtn/+
UtJkZdyUg+eTF99o7is7mjgu1Uo03SYu7ov2xHJ2B57YIHf3XxX8vQu1rN4qEyxf
YgtVYkQMG0vYtwwhAgMBAAGjYzBhMA4GA1UdDwEB/wQEAwIBBjAPBgNVHRMBAf8E
BTADAQH/MB0GA1UdDgQWBBR6SnZENr8EpW+TKIPIQJx9Gzu9YDAfBgNVHSMEGDAW
gBR6SnZENr8EpW+TKIPIQJx9Gzu9YDANBgkqhkiG9w0BAQUFAAOCAQEAiTK3gI+c
XKOo1rUkwarbrBVDGAwfjOfPIuwFP+C7gHp13hi1XoZ2t27zNuCIdKecI3qJzXa3
iQ91FTKx7X+bKZarYgju4dagfaxQieHEmvohwKZTjsz8PgObkgYupN57ojse09lZ
X0YrEVGyxiOBReQ27GuZmahVaFTotr+trdMECUEevTkb4hF8MgqNFMX6zQmnZkrz
UhlvJRzjC9qWV7pRbw+sjAxWC+Y5RdyodIBck/NCTsnSpvTIFeakZZTnbiYntMer
yjTN5FhxDmnTGaK9aivEm7aePsTLpGfOcLymfqSVcGmsYyoJLUMlDJJgV/iHJl+k
8zdYVk3LzAfbVA==
-----END CERTIFICATE-----
