Certificate:
    Data:
        Version: 3 (0x2)
        Serial Number: 1 (0x1)
        Signature Algorithm: sha1WithRSAEncryption
        Issuer: DC=org, DC=simple, O=Simple Inc, OU=Simple Signing CA, CN=Simple Signing CA
        Validity
            Not Before: May 15 04:15:51 2021 GMT
            Not After : May 15 04:15:51 2023 GMT
        Subject: DC=org, DC=simple, O=Simple Inc, CN=Fred Flintstone
        Subject Public Key Info:
            Public Key Algorithm: rsaEncryption
                RSA Public-Key: (2048 bit)
                Modulus:
                    00:9b:85:76:e5:fb:70:e6:76:6a:04:d8:39:4b:a8:
                    5a:9d:81:13:86:23:c8:c2:a2:53:72:14:24:0e:e5:
                    c2:00:1c:cc:6a:a0:96:8f:d0:2e:ab:e6:a7:4a:1f:
                    fb:86:31:be:13:c5:59:3c:4b:80:6f:fe:42:6b:cf:
                    79:b6:7b:a7:f8:b7:4f:ff:da:d2:a2:e8:8e:21:0e:
                    ba:7a:7c:09:cd:78:79:9b:a7:88:6e:45:1f:d5:9f:
                    a2:fb:27:ee:36:24:ee:47:e0:1f:63:47:e6:38:d9:
                    38:03:00:42:ee:fd:82:92:2d:7d:93:e0:05:a8:eb:
                    23:98:fb:2c:eb:07:45:f0:f8:9a:7c:be:c0:e3:7c:
                    9a:b4:9c:d0:67:8c:ba:5f:4b:ee:94:0d:32:aa:ba:
                    fe:10:dc:5c:f3:4d:5c:59:64:7f:2f:2c:d5:63:1d:
                    3c:8a:28:38:96:23:96:97:01:0c:00:4f:37:99:86:
                    28:fb:6d:47:97:3c:7a:3f:dc:ef:ef:7c:86:56:c2:
                    71:98:1d:d9:59:c0:95:fb:ea:46:53:92:1e:a4:9c:
                    1d:9a:c0:80:23:d7:16:c7:b8:bc:9a:88:4f:90:fe:
                    3e:d9:47:6b:28:ee:c7:80:3c:e5:51:4a:5d:c8:b1:
                    99:51:70:86:bf:0f:c8:4a:c2:4b:54:c8:5e:58:82:
                    f0:b9
                Exponent: 65537 (0x10001)
        X509v3 extensions:
            X509v3 Key Usage: critical
                Digital Signature, Key Encipherment
            X509v3 Basic Constraints: 
                CA:FALSE
            X509v3 Extended Key Usage: 
                E-mail Protection, TLS Web Client Authentication
            X509v3 Subject Key Identifier: 
                95:68:C7:EF:95:7F:C2:C8:6A:E4:91:44:04:20:E7:2B:3B:4C:E7:7E
            X509v3 Authority Key Identifier: 
                keyid:DB:60:2E:B3:16:96:C0:30:1A:E5:8C:F3:42:0D:C4:41:AB:DC:F7:EA

            X509v3 Subject Alternative Name: 
                email:fred@simple.org
    Signature Algorithm: sha1WithRSAEncryption
         06:10:64:c1:74:80:8f:3f:bb:3f:15:49:21:15:22:47:63:2a:
         19:33:cd:88:db:49:23:e2:01:c1:2c:1c:42:b6:1f:94:85:61:
         d1:2e:29:4e:d9:af:63:f5:46:98:d8:c9:40:21:60:ec:93:4b:
         f5:33:c5:c4:30:21:6c:ab:94:88:86:76:9c:dc:cc:7d:ea:28:
         bd:c6:35:bf:5b:cf:5b:3a:71:fa:2f:c5:b3:8f:c2:6c:52:13:
         36:ea:87:7e:df:29:88:fd:f6:8c:24:c5:92:38:32:1e:6a:2a:
         88:de:7f:14:06:2c:20:6d:9b:a8:9c:d7:ee:79:e6:a6:af:4a:
         88:ef:74:81:c5:69:6f:7f:b4:05:9d:52:42:5c:2e:a2:4e:f6:
         e7:5f:5e:ef:08:32:86:e0:f3:90:c9:7d:a0:d1:1e:4a:e3:99:
         6e:51:98:1b:8d:41:81:55:ab:72:36:a2:01:f5:d8:55:e5:18:
         38:e5:ef:81:61:4c:db:93:eb:2b:78:76:cc:26:5f:91:b7:15:
         34:c1:12:93:f6:a5:09:f0:37:35:a1:ef:d2:4c:38:87:37:bb:
         24:79:4a:c0:0d:4d:5b:be:b7:4a:94:40:c9:7b:70:9b:da:76:
         b6:33:da:4d:87:45:6e:45:df:64:ab:26:00:71:6e:00:cc:95:
         e3:56:cc:aa
-----BEGIN CERTIFICATE-----
MIID6zCCAtOgAwIBAgIBATANBgkqhkiG9w0BAQUFADB6MRMwEQYKCZImiZPyLGQB
GRYDb3JnMRYwFAYKCZImiZPyLGQBGRYGc2ltcGxlMRMwEQYDVQQKDApTaW1wbGUg
SW5jMRowGAYDVQQLDBFTaW1wbGUgU2lnbmluZyBDQTEaMBgGA1UEAwwRU2ltcGxl
IFNpZ25pbmcgQ0EwHhcNMjEwNTE1MDQxNTUxWhcNMjMwNTE1MDQxNTUxWjBcMRMw
EQYKCZImiZPyLGQBGRYDb3JnMRYwFAYKCZImiZPyLGQBGRYGc2ltcGxlMRMwEQYD
VQQKDApTaW1wbGUgSW5jMRgwFgYDVQQDDA9GcmVkIEZsaW50c3RvbmUwggEiMA0G
CSqGSIb3DQEBAQUAA4IBDwAwggEKAoIBAQCbhXbl+3DmdmoE2DlLqFqdgROGI8jC
olNyFCQO5cIAHMxqoJaP0C6r5qdKH/uGMb4TxVk8S4Bv/kJrz3m2e6f4t0//2tKi
6I4hDrp6fAnNeHmbp4huRR/Vn6L7J+42JO5H4B9jR+Y42TgDAELu/YKSLX2T4AWo
6yOY+yzrB0Xw+Jp8vsDjfJq0nNBnjLpfS+6UDTKquv4Q3FzzTVxZZH8vLNVjHTyK
KDiWI5aXAQwATzeZhij7bUeXPHo/3O/vfIZWwnGYHdlZwJX76kZTkh6knB2awIAj
1xbHuLyaiE+Q/j7ZR2so7seAPOVRSl3IsZlRcIa/D8hKwktUyF5YgvC5AgMBAAGj
gZkwgZYwDgYDVR0PAQH/BAQDAgWgMAkGA1UdEwQCMAAwHQYDVR0lBBYwFAYIKwYB
BQUHAwQGCCsGAQUFBwMCMB0GA1UdDgQWBBSVaMfvlX/CyGrkkUQEIOcrO0znfjAf
BgNVHSMEGDAWgBTbYC6zFpbAMBrljPNCDcRBq9z36jAaBgNVHREEEzARgQ9mcmVk
QHNpbXBsZS5vcmcwDQYJKoZIhvcNAQEFBQADggEBAAYQZMF0gI8/uz8VSSEVIkdj
KhkzzYjbSSPiAcEsHEK2H5SFYdEuKU7Zr2P1RpjYyUAhYOyTS/UzxcQwIWyrlIiG
dpzczH3qKL3GNb9bz1s6cfovxbOPwmxSEzbqh37fKYj99owkxZI4Mh5qKojefxQG
LCBtm6ic1+555qavSojvdIHFaW9/tAWdUkJcLqJO9udfXu8IMobg85DJfaDRHkrj
mW5RmBuNQYFVq3I2ogH12FXlGDjl74FhTNuT6yt4dswmX5G3FTTBEpP2pQnwNzWh
79JMOIc3uyR5SsANTVu+t0qUQMl7cJvadrYz2k2HRW5F32SrJgBxbgDMleNWzKo=
-----END CERTIFICATE-----
