Certificate:
    Data:
        Version: 3 (0x2)
        Serial Number: 3 (0x3)
        Signature Algorithm: sha1WithRSAEncryption
        Issuer: DC=org, DC=simple, O=Simple Inc, OU=Simple Signing CA, CN=Simple Signing CA
        Validity
            Not Before: May 15 04:30:46 2021 GMT
            Not After : May 15 04:30:46 2023 GMT
        Subject: DC=org, DC=simple, O=Simple Inc, CN=www.simple.org
        Subject Public Key Info:
            Public Key Algorithm: rsaEncryption
                RSA Public-Key: (2048 bit)
                Modulus:
                    00:a2:42:3f:b1:c7:43:56:a3:1a:61:70:11:22:0c:
                    4a:02:ab:3c:49:9b:24:06:c2:ed:d3:f1:e2:74:6e:
                    07:9c:5a:6c:53:92:9c:90:81:15:ce:ce:a2:12:66:
                    ce:ff:e8:04:58:18:b8:65:ac:5f:c2:93:35:86:c4:
                    ae:74:91:c2:9d:6a:b7:a2:4c:eb:c8:41:1b:cd:f3:
                    f3:7a:4e:0d:00:3d:59:42:aa:0c:f3:c7:d2:0e:7c:
                    21:57:de:05:17:48:1e:36:cf:1f:0d:47:2a:93:e8:
                    af:22:da:34:98:f1:37:8f:21:f3:e9:ae:91:6b:bf:
                    bb:0b:f7:21:f3:9c:22:f6:35:ab:89:d2:fa:14:b7:
                    ee:c3:1a:79:b1:11:20:87:37:6d:2d:18:5d:de:04:
                    9a:41:6a:f9:93:03:fc:25:5e:02:51:52:b0:02:99:
                    88:46:9c:56:ac:a0:ff:8b:8f:51:b5:bb:5f:ed:3a:
                    20:c0:88:7d:42:a4:f8:d7:ca:a5:7f:41:99:26:34:
                    73:e4:93:53:1d:23:71:a7:64:7e:7f:c4:8c:86:49:
                    aa:3a:da:44:72:74:b1:ab:d3:99:47:7a:ec:31:8b:
                    63:f6:df:5d:75:c3:8f:78:bd:66:56:d1:b7:f6:a1:
                    09:08:d6:7f:f6:12:68:79:7e:ef:da:9b:b1:f6:a2:
                    e6:2b
                Exponent: 65537 (0x10001)
        X509v3 extensions:
            X509v3 Key Usage: critical
                Digital Signature, Key Encipherment
            X509v3 Basic Constraints: 
                CA:FALSE
            X509v3 Extended Key Usage: 
                TLS Web Server Authentication, TLS Web Client Authentication
            X509v3 Subject Key Identifier: 
                3E:14:A6:1D:19:54:A7:1C:B2:07:03:50:B3:F7:11:7D:C6:77:EE:35
            X509v3 Authority Key Identifier: 
                keyid:DB:60:2E:B3:16:96:C0:30:1A:E5:8C:F3:42:0D:C4:41:AB:DC:F7:EA

            X509v3 Subject Alternative Name: 
                DNS:yourdomain.tld
    Signature Algorithm: sha1WithRSAEncryption
         33:f3:b0:c3:67:11:e0:d6:8d:fe:05:d6:21:8e:34:6a:c1:a1:
         cf:12:e7:31:9a:c4:33:21:8c:11:22:4a:42:07:7c:77:e1:57:
         d4:26:82:64:58:dd:22:30:76:2a:ac:3d:f8:7b:c6:d6:7f:ff:
         88:8b:38:36:f3:80:25:79:d2:8c:95:26:2d:5b:87:15:69:5d:
         2a:99:1c:69:21:a7:16:9d:81:73:d8:fd:d7:bb:2f:21:3f:ee:
         b8:e1:fa:26:76:ca:e2:f2:57:c7:bd:9a:cb:e2:76:4a:05:83:
         34:0f:0f:46:d0:43:54:f7:ee:c4:19:fd:1e:a5:39:74:ee:c4:
         b3:b7:e6:82:11:66:3b:43:c8:ae:e3:73:92:1a:5c:58:bd:fe:
         7d:24:de:99:89:cf:64:e2:3c:8c:f4:f6:ea:08:2c:5b:cd:6e:
         71:54:21:8b:21:29:24:02:7e:10:68:49:3b:3d:3b:f9:14:5e:
         cb:85:bc:f7:7e:06:2e:a2:2f:71:7e:ac:20:b0:ad:34:f6:b3:
         3f:61:2f:c5:50:12:b2:fd:50:d3:1e:27:8d:b1:da:e9:35:6d:
         b6:ff:9e:8c:98:e9:6d:7b:73:a0:fd:ae:6c:58:5b:e3:9d:e3:
         8d:7f:40:e6:86:1e:fb:84:33:81:49:c3:db:29:89:04:9a:57:
         a7:42:df:d5
-----BEGIN CERTIFICATE-----
MIID6TCCAtGgAwIBAgIBAzANBgkqhkiG9w0BAQUFADB6MRMwEQYKCZImiZPyLGQB
GRYDb3JnMRYwFAYKCZImiZPyLGQBGRYGc2ltcGxlMRMwEQYDVQQKDApTaW1wbGUg
SW5jMRowGAYDVQQLDBFTaW1wbGUgU2lnbmluZyBDQTEaMBgGA1UEAwwRU2ltcGxl
IFNpZ25pbmcgQ0EwHhcNMjEwNTE1MDQzMDQ2WhcNMjMwNTE1MDQzMDQ2WjBbMRMw
EQYKCZImiZPyLGQBGRYDb3JnMRYwFAYKCZImiZPyLGQBGRYGc2ltcGxlMRMwEQYD
VQQKDApTaW1wbGUgSW5jMRcwFQYDVQQDDA53d3cuc2ltcGxlLm9yZzCCASIwDQYJ
KoZIhvcNAQEBBQADggEPADCCAQoCggEBAKJCP7HHQ1ajGmFwESIMSgKrPEmbJAbC
7dPx4nRuB5xabFOSnJCBFc7OohJmzv/oBFgYuGWsX8KTNYbErnSRwp1qt6JM68hB
G83z83pODQA9WUKqDPPH0g58IVfeBRdIHjbPHw1HKpPoryLaNJjxN48h8+mukWu/
uwv3IfOcIvY1q4nS+hS37sMaebERIIc3bS0YXd4EmkFq+ZMD/CVeAlFSsAKZiEac
Vqyg/4uPUbW7X+06IMCIfUKk+NfKpX9BmSY0c+STUx0jcadkfn/EjIZJqjraRHJ0
savTmUd67DGLY/bfXXXDj3i9ZlbRt/ahCQjWf/YSaHl+79qbsfai5isCAwEAAaOB
mDCBlTAOBgNVHQ8BAf8EBAMCBaAwCQYDVR0TBAIwADAdBgNVHSUEFjAUBggrBgEF
BQcDAQYIKwYBBQUHAwIwHQYDVR0OBBYEFD4Uph0ZVKccsgcDULP3EX3Gd+41MB8G
A1UdIwQYMBaAFNtgLrMWlsAwGuWM80INxEGr3PfqMBkGA1UdEQQSMBCCDnlvdXJk
b21haW4udGxkMA0GCSqGSIb3DQEBBQUAA4IBAQAz87DDZxHg1o3+BdYhjjRqwaHP
EucxmsQzIYwRIkpCB3x34VfUJoJkWN0iMHYqrD34e8bWf/+Iizg284AledKMlSYt
W4cVaV0qmRxpIacWnYFz2P3Xuy8hP+644fomdsri8lfHvZrL4nZKBYM0Dw9G0ENU
9+7EGf0epTl07sSzt+aCEWY7Q8iu43OSGlxYvf59JN6Zic9k4jyM9PbqCCxbzW5x
VCGLISkkAn4QaEk7PTv5FF7Lhbz3fgYuoi9xfqwgsK009rM/YS/FUBKy/VDTHieN
sdrpNW22/56MmOlte3Og/a5sWFvjneONf0Dmhh77hDOBScPbKYkEmlenQt/V
-----END CERTIFICATE-----
